ARM GAS  C:\Users\User1\AppData\Local\Temp\cc9B6Wo4.s 			page 1


   1              		.cpu cortex-m4
   2              		.arch armv7e-m
   3              		.fpu fpv4-sp-d16
   4              		.eabi_attribute 27, 1
   5              		.eabi_attribute 28, 1
   6              		.eabi_attribute 20, 1
   7              		.eabi_attribute 21, 1
   8              		.eabi_attribute 23, 3
   9              		.eabi_attribute 24, 1
  10              		.eabi_attribute 25, 1
  11              		.eabi_attribute 26, 1
  12              		.eabi_attribute 30, 1
  13              		.eabi_attribute 34, 1
  14              		.eabi_attribute 18, 4
  15              		.file	"app_threadx.c"
  16              		.text
  17              	.Ltext0:
  18              		.cfi_sections	.debug_frame
  19              		.section	.text.my_thread_entry,"ax",%progbits
  20              		.align	1
  21              		.global	my_thread_entry
  22              		.syntax unified
  23              		.thumb
  24              		.thumb_func
  26              	my_thread_entry:
  27              	.LFB140:
  28              		.file 1 "Core/Src/app_threadx.c"
   1:Core/Src/app_threadx.c **** /* USER CODE BEGIN Header */
   2:Core/Src/app_threadx.c **** /**
   3:Core/Src/app_threadx.c ****   ******************************************************************************
   4:Core/Src/app_threadx.c ****   * @file    app_threadx.c
   5:Core/Src/app_threadx.c ****   * @author  MCD Application Team
   6:Core/Src/app_threadx.c ****   * @brief   ThreadX applicative file
   7:Core/Src/app_threadx.c ****   ******************************************************************************
   8:Core/Src/app_threadx.c ****   * @attention
   9:Core/Src/app_threadx.c ****   *
  10:Core/Src/app_threadx.c ****   * Copyright (c) 2021 STMicroelectronics.
  11:Core/Src/app_threadx.c ****   * All rights reserved.
  12:Core/Src/app_threadx.c ****   *
  13:Core/Src/app_threadx.c ****   * This software is licensed under terms that can be found in the LICENSE file
  14:Core/Src/app_threadx.c ****   * in the root directory of this software component.
  15:Core/Src/app_threadx.c ****   * If no LICENSE file comes with this software, it is provided AS-IS.
  16:Core/Src/app_threadx.c ****   *
  17:Core/Src/app_threadx.c ****   ******************************************************************************
  18:Core/Src/app_threadx.c ****   */
  19:Core/Src/app_threadx.c **** /* USER CODE END Header */
  20:Core/Src/app_threadx.c **** 
  21:Core/Src/app_threadx.c **** /* Includes ------------------------------------------------------------------*/
  22:Core/Src/app_threadx.c **** #include "app_threadx.h"
  23:Core/Src/app_threadx.c **** #include <gpio.h>​ 
  24:Core/Src/app_threadx.c **** #include <stdint.h>
  25:Core/Src/app_threadx.c **** 
  26:Core/Src/app_threadx.c **** /* Private includes ----------------------------------------------------------*/
  27:Core/Src/app_threadx.c **** /* USER CODE BEGIN Includes */
  28:Core/Src/app_threadx.c **** 
  29:Core/Src/app_threadx.c **** /* USER CODE END Includes */
  30:Core/Src/app_threadx.c **** 
ARM GAS  C:\Users\User1\AppData\Local\Temp\cc9B6Wo4.s 			page 2


  31:Core/Src/app_threadx.c **** /* Private typedef -----------------------------------------------------------*/
  32:Core/Src/app_threadx.c **** /* USER CODE BEGIN PTD */
  33:Core/Src/app_threadx.c **** 
  34:Core/Src/app_threadx.c **** /* USER CODE END PTD */
  35:Core/Src/app_threadx.c **** 
  36:Core/Src/app_threadx.c **** /* Private define ------------------------------------------------------------*/
  37:Core/Src/app_threadx.c **** /* USER CODE BEGIN PD */
  38:Core/Src/app_threadx.c **** #define THREAD_STACK_SIZE 1024
  39:Core/Src/app_threadx.c **** /* USER CODE END PD */
  40:Core/Src/app_threadx.c **** 
  41:Core/Src/app_threadx.c **** /* Private macro -------------------------------------------------------------*/
  42:Core/Src/app_threadx.c **** /* USER CODE BEGIN PM */
  43:Core/Src/app_threadx.c **** 
  44:Core/Src/app_threadx.c **** /* USER CODE END PM */
  45:Core/Src/app_threadx.c **** 
  46:Core/Src/app_threadx.c **** /* Private variables ---------------------------------------------------------*/
  47:Core/Src/app_threadx.c **** /* USER CODE BEGIN PV */
  48:Core/Src/app_threadx.c **** uint8_t thread_stack[THREAD_STACK_SIZE];
  49:Core/Src/app_threadx.c **** TX_THREAD thread_ptr;
  50:Core/Src/app_threadx.c **** /* USER CODE END PV */
  51:Core/Src/app_threadx.c **** 
  52:Core/Src/app_threadx.c **** /* Private function prototypes -----------------------------------------------*/
  53:Core/Src/app_threadx.c **** /* USER CODE BEGIN PFP */
  54:Core/Src/app_threadx.c **** VOID my_thread_entry(ULONG initial_input);
  55:Core/Src/app_threadx.c **** /* USER CODE END PFP */
  56:Core/Src/app_threadx.c **** 
  57:Core/Src/app_threadx.c **** /**
  58:Core/Src/app_threadx.c ****   * @brief  Application ThreadX Initialization.
  59:Core/Src/app_threadx.c ****   * @param memory_ptr: memory pointer
  60:Core/Src/app_threadx.c ****   * @retval int
  61:Core/Src/app_threadx.c ****   */
  62:Core/Src/app_threadx.c **** UINT App_ThreadX_Init(VOID *memory_ptr)
  63:Core/Src/app_threadx.c **** {
  64:Core/Src/app_threadx.c ****   UINT ret = TX_SUCCESS;
  65:Core/Src/app_threadx.c ****   TX_BYTE_POOL *byte_pool = (TX_BYTE_POOL*)memory_ptr;
  66:Core/Src/app_threadx.c **** 
  67:Core/Src/app_threadx.c ****   /* USER CODE BEGIN App_ThreadX_Init */
  68:Core/Src/app_threadx.c ****   (void)byte_pool;
  69:Core/Src/app_threadx.c **** 
  70:Core/Src/app_threadx.c ****   tx_thread_create(&thread_ptr, "my thread", my_thread_entry, 0x1234, thread_stack, THREAD_STACK_SI
  71:Core/Src/app_threadx.c ****   /* USER CODE END App_ThreadX_Init */
  72:Core/Src/app_threadx.c **** 
  73:Core/Src/app_threadx.c ****   return ret;
  74:Core/Src/app_threadx.c **** }
  75:Core/Src/app_threadx.c **** 
  76:Core/Src/app_threadx.c **** /**
  77:Core/Src/app_threadx.c ****   * @brief  MX_ThreadX_Init
  78:Core/Src/app_threadx.c ****   * @param  None
  79:Core/Src/app_threadx.c ****   * @retval None
  80:Core/Src/app_threadx.c ****   */
  81:Core/Src/app_threadx.c **** void MX_ThreadX_Init(void)
  82:Core/Src/app_threadx.c **** {
  83:Core/Src/app_threadx.c ****   /* USER CODE BEGIN  Before_Kernel_Start */
  84:Core/Src/app_threadx.c **** 
  85:Core/Src/app_threadx.c ****   /* USER CODE END  Before_Kernel_Start */
  86:Core/Src/app_threadx.c **** 
  87:Core/Src/app_threadx.c ****   tx_kernel_enter();
ARM GAS  C:\Users\User1\AppData\Local\Temp\cc9B6Wo4.s 			page 3


  88:Core/Src/app_threadx.c **** 
  89:Core/Src/app_threadx.c ****   /* USER CODE BEGIN  Kernel_Start_Error */
  90:Core/Src/app_threadx.c **** 
  91:Core/Src/app_threadx.c ****   /* USER CODE END  Kernel_Start_Error */
  92:Core/Src/app_threadx.c **** }
  93:Core/Src/app_threadx.c **** 
  94:Core/Src/app_threadx.c **** /* USER CODE BEGIN 1 */
  95:Core/Src/app_threadx.c **** VOID my_thread_entry(ULONG initial_input){
  29              		.loc 1 95 42 view -0
  30              		.cfi_startproc
  31              		@ Volatile: function does not return.
  32              		@ args = 0, pretend = 0, frame = 0
  33              		@ frame_needed = 0, uses_anonymous_args = 0
  34              	.LVL0:
  35              		.loc 1 95 42 is_stmt 0 view .LVU1
  36 0000 08B5     		push	{r3, lr}
  37              	.LCFI0:
  38              		.cfi_def_cfa_offset 8
  39              		.cfi_offset 3, -8
  40              		.cfi_offset 14, -4
  41              	.LVL1:
  42              	.L2:
  96:Core/Src/app_threadx.c **** 	while(1) {
  43              		.loc 1 96 2 is_stmt 1 discriminator 1 view .LVU2
  97:Core/Src/app_threadx.c **** 		HAL_GPIO_TogglePin(LD2_GPIO_Port, LD2_Pin);
  44              		.loc 1 97 3 discriminator 1 view .LVU3
  45 0002 2021     		movs	r1, #32
  46 0004 0348     		ldr	r0, .L4
  47 0006 FFF7FEFF 		bl	HAL_GPIO_TogglePin
  48              	.LVL2:
  98:Core/Src/app_threadx.c **** 		tx_thread_sleep(20);
  49              		.loc 1 98 3 discriminator 1 view .LVU4
  50 000a 1420     		movs	r0, #20
  51 000c FFF7FEFF 		bl	_tx_thread_sleep
  52              	.LVL3:
  96:Core/Src/app_threadx.c **** 	while(1) {
  53              		.loc 1 96 7 discriminator 1 view .LVU5
  54 0010 F7E7     		b	.L2
  55              	.L5:
  56 0012 00BF     		.align	2
  57              	.L4:
  58 0014 00000240 		.word	1073872896
  59              		.cfi_endproc
  60              	.LFE140:
  62              		.section	.rodata.App_ThreadX_Init.str1.4,"aMS",%progbits,1
  63              		.align	2
  64              	.LC0:
  65 0000 6D792074 		.ascii	"my thread\000"
  65      68726561 
  65      6400
  66              		.section	.text.App_ThreadX_Init,"ax",%progbits
  67              		.align	1
  68              		.global	App_ThreadX_Init
  69              		.syntax unified
  70              		.thumb
  71              		.thumb_func
  73              	App_ThreadX_Init:
ARM GAS  C:\Users\User1\AppData\Local\Temp\cc9B6Wo4.s 			page 4


  74              	.LVL4:
  75              	.LFB138:
  63:Core/Src/app_threadx.c ****   UINT ret = TX_SUCCESS;
  76              		.loc 1 63 1 view -0
  77              		.cfi_startproc
  78              		@ args = 0, pretend = 0, frame = 0
  79              		@ frame_needed = 0, uses_anonymous_args = 0
  63:Core/Src/app_threadx.c ****   UINT ret = TX_SUCCESS;
  80              		.loc 1 63 1 is_stmt 0 view .LVU7
  81 0000 00B5     		push	{lr}
  82              	.LCFI1:
  83              		.cfi_def_cfa_offset 4
  84              		.cfi_offset 14, -4
  85 0002 89B0     		sub	sp, sp, #36
  86              	.LCFI2:
  87              		.cfi_def_cfa_offset 40
  64:Core/Src/app_threadx.c ****   TX_BYTE_POOL *byte_pool = (TX_BYTE_POOL*)memory_ptr;
  88              		.loc 1 64 3 is_stmt 1 view .LVU8
  89              	.LVL5:
  65:Core/Src/app_threadx.c **** 
  90              		.loc 1 65 3 view .LVU9
  68:Core/Src/app_threadx.c **** 
  91              		.loc 1 68 3 view .LVU10
  70:Core/Src/app_threadx.c ****   /* USER CODE END App_ThreadX_Init */
  92              		.loc 1 70 3 view .LVU11
  93 0004 B023     		movs	r3, #176
  94 0006 0693     		str	r3, [sp, #24]
  95 0008 0123     		movs	r3, #1
  96 000a 0593     		str	r3, [sp, #20]
  97 000c 0493     		str	r3, [sp, #16]
  98 000e 0F23     		movs	r3, #15
  99 0010 0393     		str	r3, [sp, #12]
 100 0012 0293     		str	r3, [sp, #8]
 101 0014 4FF48063 		mov	r3, #1024
 102 0018 0193     		str	r3, [sp, #4]
 103 001a 064B     		ldr	r3, .L8
 104 001c 0093     		str	r3, [sp]
 105 001e 41F23423 		movw	r3, #4660
 106 0022 054A     		ldr	r2, .L8+4
 107 0024 0549     		ldr	r1, .L8+8
 108 0026 0648     		ldr	r0, .L8+12
 109              	.LVL6:
  70:Core/Src/app_threadx.c ****   /* USER CODE END App_ThreadX_Init */
 110              		.loc 1 70 3 is_stmt 0 view .LVU12
 111 0028 FFF7FEFF 		bl	_txe_thread_create
 112              	.LVL7:
  73:Core/Src/app_threadx.c **** }
 113              		.loc 1 73 3 is_stmt 1 view .LVU13
  74:Core/Src/app_threadx.c **** 
 114              		.loc 1 74 1 is_stmt 0 view .LVU14
 115 002c 0020     		movs	r0, #0
 116 002e 09B0     		add	sp, sp, #36
 117              	.LCFI3:
 118              		.cfi_def_cfa_offset 4
 119              		@ sp needed
 120 0030 5DF804FB 		ldr	pc, [sp], #4
 121              	.L9:
ARM GAS  C:\Users\User1\AppData\Local\Temp\cc9B6Wo4.s 			page 5


 122              		.align	2
 123              	.L8:
 124 0034 00000000 		.word	.LANCHOR1
 125 0038 00000000 		.word	my_thread_entry
 126 003c 00000000 		.word	.LC0
 127 0040 00000000 		.word	.LANCHOR0
 128              		.cfi_endproc
 129              	.LFE138:
 131              		.section	.text.MX_ThreadX_Init,"ax",%progbits
 132              		.align	1
 133              		.global	MX_ThreadX_Init
 134              		.syntax unified
 135              		.thumb
 136              		.thumb_func
 138              	MX_ThreadX_Init:
 139              	.LFB139:
  82:Core/Src/app_threadx.c ****   /* USER CODE BEGIN  Before_Kernel_Start */
 140              		.loc 1 82 1 is_stmt 1 view -0
 141              		.cfi_startproc
 142              		@ args = 0, pretend = 0, frame = 0
 143              		@ frame_needed = 0, uses_anonymous_args = 0
 144 0000 08B5     		push	{r3, lr}
 145              	.LCFI4:
 146              		.cfi_def_cfa_offset 8
 147              		.cfi_offset 3, -8
 148              		.cfi_offset 14, -4
  87:Core/Src/app_threadx.c **** 
 149              		.loc 1 87 3 view .LVU16
 150 0002 FFF7FEFF 		bl	_tx_initialize_kernel_enter
 151              	.LVL8:
  92:Core/Src/app_threadx.c **** 
 152              		.loc 1 92 1 is_stmt 0 view .LVU17
 153 0006 08BD     		pop	{r3, pc}
 154              		.cfi_endproc
 155              	.LFE139:
 157              		.global	thread_ptr
 158              		.global	thread_stack
 159              		.section	.bss.thread_ptr,"aw",%nobits
 160              		.align	2
 161              		.set	.LANCHOR0,. + 0
 164              	thread_ptr:
 165 0000 00000000 		.space	176
 165      00000000 
 165      00000000 
 165      00000000 
 165      00000000 
 166              		.section	.bss.thread_stack,"aw",%nobits
 167              		.align	2
 168              		.set	.LANCHOR1,. + 0
 171              	thread_stack:
 172 0000 00000000 		.space	1024
 172      00000000 
 172      00000000 
 172      00000000 
 172      00000000 
 173              		.text
 174              	.Letext0:
ARM GAS  C:\Users\User1\AppData\Local\Temp\cc9B6Wo4.s 			page 6


 175              		.file 2 "c:\\program files (x86)\\gnu arm embedded toolchain\\10 2021.10\\arm-none-eabi\\include\\
 176              		.file 3 "Middlewares/ST/threadx/ports/cortex_m4/gnu/inc/tx_port.h"
 177              		.file 4 "Middlewares/ST/threadx/common/inc/tx_api.h"
 178              		.file 5 "c:\\program files (x86)\\gnu arm embedded toolchain\\10 2021.10\\arm-none-eabi\\include\\
 179              		.file 6 "Drivers/CMSIS/Device/ST/STM32F4xx/Include/stm32f446xx.h"
 180              		.file 7 "Drivers/STM32F4xx_HAL_Driver/Inc/stm32f4xx_hal_gpio.h"
ARM GAS  C:\Users\User1\AppData\Local\Temp\cc9B6Wo4.s 			page 7

